; Function Attrs: nounwind uwtable
define ptr @l_Lean_MVarId_assertExt(ptr noundef %0, ptr noundef %1, ptr noundef %2, ptr noundef %3, ptr noundef %4, ptr noundef %5, ptr noundef %6, ptr noundef %7, ptr noundef %8, ptr noundef %9) local_unnamed_addr #0 {
  %11 = load ptr, ptr @l_Lean_MVarId_assert___closed__2, align 8, !tbaa !10
  %12 = ptrtoint ptr %0 to i64
  %13 = and i64 %12, 1
  %.not = icmp eq i64 %13, 0
  br i1 %.not, label %14, label %lean_inc.exit

14:                                               ; preds = %10
  %.val.i = load i32, ptr %0, align 4, !tbaa !4
  %15 = icmp sgt i32 %.val.i, 0
  br i1 %15, label %16, label %18, !prof !9

16:                                               ; preds = %14
  %17 = add nuw i32 %.val.i, 1
  store i32 %17, ptr %0, align 4, !tbaa !4
  br label %lean_inc.exit

18:                                               ; preds = %14
  %.not.i = icmp eq i32 %.val.i, 0
  br i1 %.not.i, label %lean_inc.exit, label %19

19:                                               ; preds = %18
  tail call void @lean_inc_ref_cold(ptr noundef nonnull %0) #4
  br label %lean_inc.exit

lean_inc.exit:                                    ; preds = %19, %18, %16, %10
  tail call void @lean_inc_heartbeat() #4
  %20 = tail call noalias ptr @mi_malloc_small(i64 noundef 72) #4
  %21 = icmp eq ptr %20, null
  br i1 %21, label %22, label %lean_alloc_closure.exit

22:                                               ; preds = %lean_inc.exit
  tail call void @lean_internal_panic_out_of_memory() #5
  unreachable

lean_alloc_closure.exit:                          ; preds = %lean_inc.exit
  %23 = getelementptr inbounds nuw i8, ptr %20, i64 4
  store i32 1, ptr %20, align 4, !tbaa !4
  store i32 -184549304, ptr %23, align 4
  %24 = getelementptr inbounds nuw i8, ptr %20, i64 8
  store ptr @l_Lean_MVarId_assertExt___lambda__1, ptr %24, align 8, !tbaa !10
  %25 = getelementptr inbounds nuw i8, ptr %20, i64 16
  store i16 11, ptr %25, align 8, !tbaa !12
  %26 = getelementptr inbounds nuw i8, ptr %20, i64 18
  store i16 6, ptr %26, align 2, !tbaa !12
  %27 = getelementptr inbounds nuw i8, ptr %20, i64 24
  store ptr %0, ptr %27, align 8, !tbaa !10
  %28 = getelementptr inbounds nuw i8, ptr %20, i64 32
  store ptr %11, ptr %28, align 8, !tbaa !10
  %29 = getelementptr inbounds nuw i8, ptr %20, i64 40
  store ptr %2, ptr %29, align 8, !tbaa !10
  %30 = getelementptr inbounds nuw i8, ptr %20, i64 48
  store ptr %3, ptr %30, align 8, !tbaa !10
  %31 = getelementptr inbounds nuw i8, ptr %20, i64 56
  store ptr %4, ptr %31, align 8, !tbaa !10
  %32 = getelementptr inbounds nuw i8, ptr %20, i64 64
  store ptr %1, ptr %32, align 8, !tbaa !10
  %33 = tail call ptr @l_Lean_MVarId_withContext___at___private_Lean_Meta_SynthInstance_0__Lean_Meta_synthPendingImp___spec__2___rarg(ptr noundef %0, ptr noundef nonnull %20, ptr noundef %5, ptr noundef %6, ptr noundef %7, ptr noundef %8, ptr noundef %9) #4
  ret ptr %33
}